Certificate:
    Data:
        Version: 3 (0x2)
        Serial Number:
            44:ac:a1:8d:46:c2:88:51:86:48:07:8a:b0:89:d9:f9:5e:02:eb:19
        Signature Algorithm: sha256WithRSAEncryption
        Issuer: CN=localhost
        Validity
            Not Before: May 19 12:09:51 2024 GMT
            Not After : Apr 25 12:09:51 2124 GMT
        Subject: CN=localhost
        Subject Public Key Info:
            Public Key Algorithm: rsaEncryption
                Public-Key: (2048 bit)
                Modulus:
                    00:d6:34:31:c4:2f:0e:22:aa:9c:58:36:c4:dc:4f:
                    b9:a0:7b:6c:43:a5:be:b0:69:94:6d:7e:7a:4c:93:
                    23:6d:03:d1:2b:c9:97:ed:17:0e:16:50:5f:46:8d:
                    11:08:ae:c7:f2:0f:71:dd:e1:6b:9e:f5:60:e1:ea:
                    1e:a2:46:80:0d:83:0f:a7:90:30:eb:c9:ac:7c:4a:
                    4c:3d:32:71:e6:8e:4a:f9:11:b9:57:b6:46:17:3c:
                    c0:1d:69:69:18:34:1f:e8:ca:7f:c3:16:6d:38:99:
                    71:2f:34:7b:52:af:85:56:9f:80:38:80:ca:ea:e9:
                    3e:76:44:b2:13:da:fb:39:c4:25:5d:5c:d5:62:a7:
                    d5:b7:11:bf:c3:a0:be:02:71:ca:94:d8:0e:f6:5d:
                    fa:aa:b6:8e:84:29:05:a3:3f:e1:33:42:89:88:c7:
                    80:5b:8f:d3:e8:bc:d4:04:26:95:73:16:8b:d3:b8:
                    3a:a4:be:db:4a:c7:fa:42:37:bc:65:1d:e5:60:4d:
                    57:5d:a7:b6:cf:d2:92:2d:e8:38:6d:17:09:30:93:
                    7d:d1:cf:0d:71:b2:93:34:4b:af:70:5e:0a:b7:f3:
                    e6:5d:10:76:84:05:f0:8d:75:7a:9c:3f:17:d4:fc:
                    12:9c:c4:b6:44:73:0e:29:19:8c:cc:20:4b:24:2e:
                    b4:b5
                Exponent: 65537 (0x10001)
        X509v3 extensions:
            X509v3 Subject Alternative Name: 
                DNS:localhost
            X509v3 Subject Key Identifier: 
                6A:AA:BA:B0:1D:83:80:6B:0C:F3:79:30:1C:58:5B:9E:B8:2C:8E:7A
    Signature Algorithm: sha256WithRSAEncryption
    Signature Value:
        50:67:1d:cf:97:27:0c:ab:85:2a:4f:e3:3f:0d:99:31:84:95:
        14:ea:09:59:53:6b:19:47:dd:2b:a9:41:aa:07:69:35:e9:55:
        cf:79:c3:c0:24:eb:28:ea:1f:6e:8f:63:91:c3:96:59:12:06:
        e0:5b:50:eb:34:7f:12:a6:e8:51:15:c1:8c:a5:90:3f:0a:f7:
        d3:ca:e2:aa:e7:a6:e4:7d:b7:03:6b:b1:9e:d6:c3:fe:a9:ec:
        3e:ad:79:ed:e2:a7:1e:65:c2:4a:86:75:b7:b2:0a:97:87:0b:
        18:0b:2b:eb:23:21:d6:b0:8f:c0:5d:92:59:24:33:84:3c:de:
        ab:e1:3b:3e:d2:78:f0:0e:a8:3b:9a:e6:49:f8:5c:37:7d:91:
        08:b9:41:0e:a1:4f:a9:ae:f5:3d:2b:bd:90:63:07:17:cf:19:
        ea:95:e6:86:04:37:dd:00:d3:63:12:94:70:0e:51:3b:83:8e:
        e5:84:4b:86:39:30:fb:6e:16:5f:d1:3a:04:88:8c:55:dc:7a:
        5a:aa:b9:63:6d:fd:85:ad:23:b6:e5:b3:3d:5c:35:a5:0d:a9:
        c3:93:29:58:bc:19:4e:43:0c:50:67:d5:e9:81:88:4f:db:8f:
        46:92:ca:d1:d3:93:f4:a5:c1:78:6c:a9:96:f4:52:8b:51:2d:
        0b:d6:9d:04
-----BEGIN CERTIFICATE-----
MIIC7zCCAdegAwIBAgIURKyhjUbCiFGGSAeKsInZ+V4C6xkwDQYJKoZIhvcNAQEL
BQAwFDESMBAGA1UEAwwJbG9jYWxob3N0MCAXDTI0MDUxOTEyMDk1MVoYDzIxMjQw
NDI1MTIwOTUxWjAUMRIwEAYDVQQDDAlsb2NhbGhvc3QwggEiMA0GCSqGSIb3DQEB
AQUAA4IBDwAwggEKAoIBAQDWNDHELw4iqpxYNsTcT7mge2xDpb6waZRtfnpMkyNt
A9EryZftFw4WUF9GjREIrsfyD3Hd4Wue9WDh6h6iRoANgw+nkDDryax8Skw9MnHm
jkr5EblXtkYXPMAdaWkYNB/oyn/DFm04mXEvNHtSr4VWn4A4gMrq6T52RLIT2vs5
xCVdXNVip9W3Eb/DoL4CccqU2A72Xfqqto6EKQWjP+EzQomIx4Bbj9PovNQEJpVz
FovTuDqkvttKx/pCN7xlHeVgTVddp7bP0pIt6DhtFwkwk33Rzw1xspM0S69wXgq3
8+ZdEHaEBfCNdXqcPxfU/BKcxLZEcw4pGYzMIEskLrS1AgMBAAGjNzA1MBQGA1Ud
EQQNMAuCCWxvY2FsaG9zdDAdBgNVHQ4EFgQUaqq6sB2DgGsM83kwHFhbnrgsjnow
DQYJKoZIhvcNAQELBQADggEBAFBnHc+XJwyrhSpP4z8NmTGElRTqCVlTaxlH3Sup
QaoHaTXpVc95w8Ak6yjqH26PY5HDllkSBuBbUOs0fxKm6FEVwYylkD8K99PK4qrn
puR9twNrsZ7Ww/6p7D6tee3ipx5lwkqGdbeyCpeHCxgLK+sjIdawj8BdklkkM4Q8
3qvhOz7SePAOqDua5kn4XDd9kQi5QQ6hT6mu9T0rvZBjBxfPGeqV5oYEN90A02MS
lHAOUTuDjuWES4Y5MPtuFl/ROgSIjFXcelqquWNt/YWtI7blsz1cNaUNqcOTKVi8
GU5DDFBn1emBiE/bj0aSytHTk/SlwXhsqZb0UotRLQvWnQQ=
-----END CERTIFICATE-----
