-----BEGIN PRIVATE KEY-----
MIIEvAIBADANBgkqhkiG9w0BAQEFAASCBKYwggSiAgEAAoIBAQCxt0pxF8h5PJPm
2gq1Z08RjkcBN+1qck2KJqQDjO88X/ZiowKYKrHbWRgnoXRHWlSe1jpMAovDbMGw
qIjCIoPPkDDF0sGsUF1Ep3s5kh1vZ5u/FRxiYbo04y6x1mEwK57+0hV8cN0s2o9i
q5MROsOycYtb2ercwXT4fJk7o29KIJg7ZCbutRceiIqgvfy4pVqJDC69cXyktx+K
bM4/mZAeG69RAJ3Mp+gWsTj8/tDrP5nxPyTAte3n83dCYNJ73C9ysbXbWZJHixIu
10GTwgkxDCTCXxNOVdpx37w3Kqs+s9N7AQcgHIqW2V744/qzCLHcNwjJOGcPWuWQ
okRXHwmrAgMBAAECggEAC8aH3beENphPeofvFrcKM7EYPlns1tVNEv7ddkjD313C
byW6+cc2csDUC2g00reHDOFICppOlXvi16hLK4Xq8vlsaec9owPOMkrgrN9kKOoW
FVK6R0CPfIqjIPCCDxWM2vijqNO3rA2tW43f2E/rAKtqXwMw/0CoVgC3jI6XRLOI
7oREzq4F+/VleGbpiLOR7nBTrZTn5lfFwvKSnuQevFpHkOAyDjYH05FAUo12X09P
RJvkF06AKwmK42M+xpB0Bjb4KuFUuJfA7Raqq79LLLHiCQMGDz5J85doWs6/HCvn
id77TU15xmV0wNb+zQjfOT2eaDf9Uq4IHUmU9hhQ6QKBgQDVayZFS/mFmPvdApZj
/C3iT3E/EzCtM7Me5ed+BOauco4+HQ9VLdI5oVOR7kYD0TbG/NTHqPRYWp8exm6k
QRS1h5wZ+Ge03KcqeZnDnZmvtGLR2Lvll01gsR2Zv8axLvDgyRo+QUaJUyb8oeaM
CV96staOD6+seRrpHMezgFzGUwKBgQDVLIyQQVL6QFi+1/5kjolpqc43vVG7Dw5u
T27ZPIMX4NgrPzdpUKEnILw/deakFZoyFDX5CgtdR6o+UEEqu7G3uESZzXTwbyLk
+dronHbCt6PE0IUyeW/dxb+DsgM2Kw43tjQtwBsBAbc1m2s49JvJ4xXs9Ek8H9pd
Wec50KQUSQKBgFo2s/PA/NX7aCPxbw8Oz3qFqFJIU2AzpXjfKC699aEyLWyWLiAM
gXv49PGP7iq46lXNFEjd44Phsrd4m9Z06EMf8t2LgpMSXtt2kYf9+7QpJUidPDf9
8Ch6Vg/i4COPuyTZ/WzpfN6ZtrY93c2+PI0KQeXFPbZDbxuxHb2D+jOfAoGABP1b
9OxygsUKzrzDiZsEgGKnHwrhZN1/WvmlAJS4BNEQfkKmi2KFwyKzBVE/KswOpelv
MfsYNQC+bWL3g4aNLF21zVvPxujzCiUHCLbQ2NHvlWXEGGBbS/ea+fwqsxPi607q
fb+nYiimHy0aH2UqWFlmY/t701pzhAfcr6/Ah3ECgYAE2a6dg4nNZDRj3UvKJoYD
GDEogXpDJL+CB6ZD/mp2SzJjGrMu+Ujd9ingQBTO9Tm5/GDURalFL6EZqEVPGW5c
s6TRkeDMHjC84PzqHiA+IUx5EWETMbyAqxlTPjYAitU/O/E+oDJ3cgrjqZQS3EYk
3XU8vFyOFxuUZrPUDY5Mfw==
-----END PRIVATE KEY-----
Certificate:
    Data:
        Version: 3 (0x2)
        Serial Number:
            51:88:28:47:58:ac:d6:63:41:c0:62:84:27:46:13:2d:eb:bf:4f:4b
        Signature Algorithm: sha256WithRSAEncryption
        Issuer: CN=localhost
        Validity
            Not Before: May 21 12:03:17 2024 GMT
            Not After : Apr 27 12:03:17 2124 GMT
        Subject: CN=localhost
        Subject Public Key Info:
            Public Key Algorithm: rsaEncryption
                Public-Key: (2048 bit)
                Modulus:
                    00:b1:b7:4a:71:17:c8:79:3c:93:e6:da:0a:b5:67:
                    4f:11:8e:47:01:37:ed:6a:72:4d:8a:26:a4:03:8c:
                    ef:3c:5f:f6:62:a3:02:98:2a:b1:db:59:18:27:a1:
                    74:47:5a:54:9e:d6:3a:4c:02:8b:c3:6c:c1:b0:a8:
                    88:c2:22:83:cf:90:30:c5:d2:c1:ac:50:5d:44:a7:
                    7b:39:92:1d:6f:67:9b:bf:15:1c:62:61:ba:34:e3:
                    2e:b1:d6:61:30:2b:9e:fe:d2:15:7c:70:dd:2c:da:
                    8f:62:ab:93:11:3a:c3:b2:71:8b:5b:d9:ea:dc:c1:
                    74:f8:7c:99:3b:a3:6f:4a:20:98:3b:64:26:ee:b5:
                    17:1e:88:8a:a0:bd:fc:b8:a5:5a:89:0c:2e:bd:71:
                    7c:a4:b7:1f:8a:6c:ce:3f:99:90:1e:1b:af:51:00:
                    9d:cc:a7:e8:16:b1:38:fc:fe:d0:eb:3f:99:f1:3f:
                    24:c0:b5:ed:e7:f3:77:42:60:d2:7b:dc:2f:72:b1:
                    b5:db:59:92:47:8b:12:2e:d7:41:93:c2:09:31:0c:
                    24:c2:5f:13:4e:55:da:71:df:bc:37:2a:ab:3e:b3:
                    d3:7b:01:07:20:1c:8a:96:d9:5e:f8:e3:fa:b3:08:
                    b1:dc:37:08:c9:38:67:0f:5a:e5:90:a2:44:57:1f:
                    09:ab
                Exponent: 65537 (0x10001)
        X509v3 extensions:
            X509v3 Subject Alternative Name: 
                DNS:localhost
            X509v3 Subject Key Identifier: 
                6E:07:F0:C8:4A:57:26:F0:67:3E:14:F4:5E:42:EF:6F:06:C8:EE:0F
    Signature Algorithm: sha256WithRSAEncryption
    Signature Value:
        35:97:c6:ff:5d:8a:ea:c7:b7:bc:f1:8c:e5:a8:03:38:55:fb:
        7b:75:cf:c4:05:5b:2b:c4:ee:eb:fd:95:ca:22:83:aa:df:f8:
        df:9c:3a:45:5e:32:d5:bb:cf:80:38:6e:cc:c9:49:2a:a1:d0:
        11:bd:f9:13:de:06:ca:c7:6d:ee:48:14:68:ac:9c:88:b2:c9:
        ce:8f:79:c4:ea:e3:39:b1:be:cb:9a:68:2d:27:23:b3:71:f8:
        10:1a:95:ca:21:39:8e:b0:1d:1f:8f:53:c4:4a:44:c2:ae:4b:
        77:6a:37:15:e3:e5:10:b2:f9:62:84:23:4b:8f:85:4e:44:6c:
        c5:3f:e5:de:21:66:2a:b6:7f:84:1b:e1:1b:b2:51:40:15:25:
        a7:49:22:b2:d5:01:59:fb:71:85:83:61:62:82:23:f1:90:c2:
        d2:5a:54:61:03:f5:ab:48:e8:f7:52:f9:f2:9c:8e:65:f6:73:
        bc:68:7e:56:5d:9b:cc:77:e6:20:5d:8c:d2:af:eb:1b:fe:d0:
        c9:f6:cd:9d:ed:06:ea:66:35:a3:e8:82:f9:04:29:07:e6:b9:
        83:97:40:7e:0a:d5:8e:98:4b:bb:81:35:ef:34:b1:38:59:2c:
        13:fa:d4:c5:68:a3:7a:32:35:ec:96:2d:c5:7c:4c:ad:5e:3a:
        dc:7b:e1:a9
-----BEGIN CERTIFICATE-----
MIIC7zCCAdegAwIBAgIUUYgoR1is1mNBwGKEJ0YTLeu/T0swDQYJKoZIhvcNAQEL
BQAwFDESMBAGA1UEAwwJbG9jYWxob3N0MCAXDTI0MDUyMTEyMDMxN1oYDzIxMjQw
NDI3MTIwMzE3WjAUMRIwEAYDVQQDDAlsb2NhbGhvc3QwggEiMA0GCSqGSIb3DQEB
AQUAA4IBDwAwggEKAoIBAQCxt0pxF8h5PJPm2gq1Z08RjkcBN+1qck2KJqQDjO88
X/ZiowKYKrHbWRgnoXRHWlSe1jpMAovDbMGwqIjCIoPPkDDF0sGsUF1Ep3s5kh1v
Z5u/FRxiYbo04y6x1mEwK57+0hV8cN0s2o9iq5MROsOycYtb2ercwXT4fJk7o29K
IJg7ZCbutRceiIqgvfy4pVqJDC69cXyktx+KbM4/mZAeG69RAJ3Mp+gWsTj8/tDr
P5nxPyTAte3n83dCYNJ73C9ysbXbWZJHixIu10GTwgkxDCTCXxNOVdpx37w3Kqs+
s9N7AQcgHIqW2V744/qzCLHcNwjJOGcPWuWQokRXHwmrAgMBAAGjNzA1MBQGA1Ud
EQQNMAuCCWxvY2FsaG9zdDAdBgNVHQ4EFgQUbgfwyEpXJvBnPhT0XkLvbwbI7g8w
DQYJKoZIhvcNAQELBQADggEBADWXxv9diurHt7zxjOWoAzhV+3t1z8QFWyvE7uv9
lcoig6rf+N+cOkVeMtW7z4A4bszJSSqh0BG9+RPeBsrHbe5IFGisnIiyyc6PecTq
4zmxvsuaaC0nI7Nx+BAalcohOY6wHR+PU8RKRMKuS3dqNxXj5RCy+WKEI0uPhU5E
bMU/5d4hZiq2f4Qb4RuyUUAVJadJIrLVAVn7cYWDYWKCI/GQwtJaVGED9atI6PdS
+fKcjmX2c7xoflZdm8x35iBdjNKv6xv+0Mn2zZ3tBupmNaPogvkEKQfmuYOXQH4K
1Y6YS7uBNe80sThZLBP61MVoo3oyNeyWLcV8TK1eOtx74ak=
-----END CERTIFICATE-----
