-----BEGIN PRIVATE KEY-----
MIIEvgIBADANBgkqhkiG9w0BAQEFAASCBKgwggSkAgEAAoIBAQDVHEOSit6hOc5q
8lgW22H5wzhctMGqIIdnHlXEdQtWEcbZh40ReulBxJoBUjvoy7HnRvzRBalSm3iu
WUlV0vXuQyKY2prakR/ncBVPR6YdEst5aUU1xWXC3vMmIbazriu1JW29MpRjpE0Y
zOMKlD4FFThuV3KjqnEpKrX/Vteyv3EblCgbNzh4y042Qiq50i92OLL3vp+if1s+
K3xPcFbyLWy3xrX1jsceI8RLM01Gk/ez+JtwO67y32w4/YENtbem77lhh67F1qiA
uDsWzMKfmfTqR4kue8Pel5neRiVjVpoDtMa213R4yxwBbNED0fmIPS8Z4XQddExQ
BZpJrXENAgMBAAECggEADyvLba/AKJceaEOnXL0ybN7mcMcXcF6PdRpWPb2dWHu8
fbjmJIPs/hcaZZSumiSCHjZSAilWhAB4Z2UI0PjLNDKIUHxjgMLLFCVJBxNRMomn
fZWubSUH2QcZJTJKOOFh0CwBc3IZ2TwVlvnjAdpKzf7UPRqxmRAlrSoSucI7aciQ
6ZZJ8rOB04nL1dgxCE0fwMkO+lRTy1L2j26cbfuwmeYNU52PBSPuzu2EuCsO0wuV
gI1Ew0UBI2N7Ij4UDJFPOIAgmmTMVo9gpLOoYhGHCnbMX8RgGH/qe5/oGMx18oFX
kfzmyKdT+hSvsevmmkpYdnt6ceEQBPEYU2zLNxfTSwKBgQDq75I3X3yyjALVKXj8
E60J5q91TFSuNTV3ML+mawpbA4TCyMKsPpkCFHA9ym9XLs8IyF39Yg/x6IxhlnoG
9vy2jxv0N93gP4mbCHZ5FieqNU66FRx0T9hVl3MuCnDvqNz4/fTJVZchMXGucJUu
/WnkicfzY5gedMVIlHjQD1Ew/wKBgQDoN70oZn07GyRqeVitIHGUL3Cr91afKsxo
Uwr+/DuzlIZpeof+s8CvWBgDaADlUvreZZEpj/sLrRedfAKRuudvxyzm9kg7zsYI
HZD1kZdYHuj+D0NJf2jNXetz/fFtbJj0w8Twz7pExTbRGHpS3QJkdNhVglnNKtvG
RrImOaUR8wKBgQCLevKHN4S0CFYCMh4nIpNgRnozHL9Fskds3R9bcT9zq5Idhs21
L3DuAC5nMRGLZDn8j+Dld1vaFmOJ6KnICskcpbhF9Qkggvhyd8LGvvWLoxx7c98x
2tmob0MtuXs1fj67ASNciRkx1sYUd7jKbh95VKfGg4Gjy1X5clSLyhw9BwKBgAij
ei/0kBgQzGwBk6DtIgyHL0PWcax+JRiEblZJ/9aQYeeunTyGZ1aeilYmGlJtodOA
J8RKDObES6qaIGZXc6Ce4ja9VraS3J8Uqn3YKq8mhzhcTP6A9N8e7VFlUwPlFFOW
rM7gi2dfhsiEhphqjFo8Vofnz3toasCXhK0TW+atAoGBAMdxs+JDnNZ5zB4ayeFL
DQi3PAkbXVE9PnRdiT/1Daica3b9XjwY8sp+DTY+knxOsiBrbFTskxEwpyT0Qtco
PlFLXyLsjlsWvF0b3wZ301pW0voVXct57B0ZD4N+ipjv8lg+/1/Vg81hhTvB3Qqg
bmq+9CtgOQuxZJtLfRJEQDUc
-----END PRIVATE KEY-----
Certificate:
    Data:
        Version: 3 (0x2)
        Serial Number:
            5c:57:34:5c:2f:30:85:ad:4e:9a:f8:2d:0e:bf:70:c2:bb:e6:92:3e
        Signature Algorithm: sha256WithRSAEncryption
        Issuer: CN=localhost
        Validity
            Not Before: May 21 14:20:39 2024 GMT
            Not After : Apr 27 14:20:39 2124 GMT
        Subject: CN=localhost
        Subject Public Key Info:
            Public Key Algorithm: rsaEncryption
                Public-Key: (2048 bit)
                Modulus:
                    00:d5:1c:43:92:8a:de:a1:39:ce:6a:f2:58:16:db:
                    61:f9:c3:38:5c:b4:c1:aa:20:87:67:1e:55:c4:75:
                    0b:56:11:c6:d9:87:8d:11:7a:e9:41:c4:9a:01:52:
                    3b:e8:cb:b1:e7:46:fc:d1:05:a9:52:9b:78:ae:59:
                    49:55:d2:f5:ee:43:22:98:da:9a:da:91:1f:e7:70:
                    15:4f:47:a6:1d:12:cb:79:69:45:35:c5:65:c2:de:
                    f3:26:21:b6:b3:ae:2b:b5:25:6d:bd:32:94:63:a4:
                    4d:18:cc:e3:0a:94:3e:05:15:38:6e:57:72:a3:aa:
                    71:29:2a:b5:ff:56:d7:b2:bf:71:1b:94:28:1b:37:
                    38:78:cb:4e:36:42:2a:b9:d2:2f:76:38:b2:f7:be:
                    9f:a2:7f:5b:3e:2b:7c:4f:70:56:f2:2d:6c:b7:c6:
                    b5:f5:8e:c7:1e:23:c4:4b:33:4d:46:93:f7:b3:f8:
                    9b:70:3b:ae:f2:df:6c:38:fd:81:0d:b5:b7:a6:ef:
                    b9:61:87:ae:c5:d6:a8:80:b8:3b:16:cc:c2:9f:99:
                    f4:ea:47:89:2e:7b:c3:de:97:99:de:46:25:63:56:
                    9a:03:b4:c6:b6:d7:74:78:cb:1c:01:6c:d1:03:d1:
                    f9:88:3d:2f:19:e1:74:1d:74:4c:50:05:9a:49:ad:
                    71:0d
                Exponent: 65537 (0x10001)
        X509v3 extensions:
            X509v3 Subject Alternative Name: 
                DNS:localhost
            X509v3 Subject Key Identifier: 
                C5:B2:7E:39:A5:B9:6B:69:19:FF:A5:D1:3C:BF:8A:28:C1:E0:C2:0C
    Signature Algorithm: sha256WithRSAEncryption
    Signature Value:
        2e:8e:62:6e:32:00:f6:ee:03:b1:11:5c:21:bf:74:09:8f:b9:
        9d:f5:d4:c1:81:7e:7a:e1:ee:9d:cc:a9:99:1b:ef:49:fd:2e:
        f2:4c:0b:10:a4:d0:7d:25:e0:7a:14:f0:bb:06:5e:df:20:f0:
        f1:af:5b:f1:ab:17:b5:85:95:92:36:c6:56:0c:a2:66:6e:45:
        46:62:33:b6:4d:b5:81:3a:37:ab:37:71:7b:77:fa:35:5e:4d:
        26:23:64:97:59:e8:46:6a:76:0c:6c:3d:b3:b5:d2:85:70:cd:
        2c:06:f3:e8:a1:78:ae:d4:c8:6e:53:4a:42:33:30:f4:31:0e:
        64:6e:84:bd:eb:69:1e:99:35:d7:d2:c6:f3:04:a7:ce:66:f3:
        c7:a4:79:f8:73:e5:38:48:90:26:7d:11:52:bb:57:22:d2:6e:
        81:52:7d:90:2a:bd:a1:cc:17:88:3b:f9:78:8f:83:ef:26:0d:
        6d:a5:c2:01:f3:d0:20:67:8a:b3:9e:d7:49:d2:05:ad:a2:0f:
        6a:ef:c4:2a:8f:8c:ab:7a:91:9a:4a:0f:93:e1:83:4e:e6:b1:
        33:a2:73:cc:52:fc:7b:13:21:54:63:7e:a0:da:8f:41:cd:c6:
        32:8a:ff:67:f5:d1:d8:5d:9e:f2:ee:94:d8:ba:33:d1:40:f9:
        59:a5:43:9d
-----BEGIN CERTIFICATE-----
MIIC7zCCAdegAwIBAgIUXFc0XC8wha1OmvgtDr9wwrvmkj4wDQYJKoZIhvcNAQEL
BQAwFDESMBAGA1UEAwwJbG9jYWxob3N0MCAXDTI0MDUyMTE0MjAzOVoYDzIxMjQw
NDI3MTQyMDM5WjAUMRIwEAYDVQQDDAlsb2NhbGhvc3QwggEiMA0GCSqGSIb3DQEB
AQUAA4IBDwAwggEKAoIBAQDVHEOSit6hOc5q8lgW22H5wzhctMGqIIdnHlXEdQtW
EcbZh40ReulBxJoBUjvoy7HnRvzRBalSm3iuWUlV0vXuQyKY2prakR/ncBVPR6Yd
Est5aUU1xWXC3vMmIbazriu1JW29MpRjpE0YzOMKlD4FFThuV3KjqnEpKrX/Vtey
v3EblCgbNzh4y042Qiq50i92OLL3vp+if1s+K3xPcFbyLWy3xrX1jsceI8RLM01G
k/ez+JtwO67y32w4/YENtbem77lhh67F1qiAuDsWzMKfmfTqR4kue8Pel5neRiVj
VpoDtMa213R4yxwBbNED0fmIPS8Z4XQddExQBZpJrXENAgMBAAGjNzA1MBQGA1Ud
EQQNMAuCCWxvY2FsaG9zdDAdBgNVHQ4EFgQUxbJ+OaW5a2kZ/6XRPL+KKMHgwgww
DQYJKoZIhvcNAQELBQADggEBAC6OYm4yAPbuA7ERXCG/dAmPuZ311MGBfnrh7p3M
qZkb70n9LvJMCxCk0H0l4HoU8LsGXt8g8PGvW/GrF7WFlZI2xlYMomZuRUZiM7ZN
tYE6N6s3cXt3+jVeTSYjZJdZ6EZqdgxsPbO10oVwzSwG8+iheK7UyG5TSkIzMPQx
DmRuhL3raR6ZNdfSxvMEp85m88ekefhz5ThIkCZ9EVK7VyLSboFSfZAqvaHMF4g7
+XiPg+8mDW2lwgHz0CBnirOe10nSBa2iD2rvxCqPjKt6kZpKD5Phg07msTOic8xS
/HsTIVRjfqDaj0HNxjKK/2f10dhdnvLulNi6M9FA+VmlQ50=
-----END CERTIFICATE-----
